target datalayout = "e-m:e-p270:32:32-p271:32:32-p272:64:64-i64:64-i128:128-f80:128-n8:16:32:64-S128"
target triple = "x86_64-pc-linux-gnu"

%struct.SDL_EVDEV_keyboard_state = type { i32, i8, i32, ptr, [9 x i8], i8, i32, ptr, i32, i8, i8, i8, i8, i8, [128 x i8], i32, ptr, ptr, ptr, ptr }
%struct.kbentry = type { i8, i8, i16 }

@k_handler = internal global [16 x ptr] [ptr @k_self, ptr @k_fn, ptr @k_spec, ptr @k_pad, ptr @k_dead, ptr @k_cons, ptr @k_cur, ptr @k_shift, ptr @k_meta, ptr @k_ascii, ptr @k_lock, ptr @k_lowercase, ptr @k_slock, ptr @k_dead2, ptr @k_brl, ptr @k_ignore], align 16

; Function Attrs: nounwind uwtable
define internal zeroext i1 @vc_kbd_led(ptr noundef %0, i32 noundef %1) #0 {
  %3 = alloca ptr, align 8
  %4 = alloca i32, align 4
  store ptr %0, ptr %3, align 8
  store i32 %1, ptr %4, align 4
  %5 = load ptr, ptr %3, align 8
  %6 = getelementptr inbounds nuw %struct.SDL_EVDEV_keyboard_state, ptr %5, i32 0, i32 12
  %7 = load i8, ptr %6, align 1
  %8 = zext i8 %7 to i32
  %9 = load i32, ptr %4, align 4
  %10 = and i32 %8, %9
  %11 = icmp ne i32 %10, 0
  ret i1 %11
}

; Function Attrs: nounwind uwtable
define hidden void @SDL_EVDEV_kbd_keycode(ptr noundef %0, i32 noundef %1, i32 noundef %2) #0 {
  %4 = alloca ptr, align 8
  %5 = alloca i32, align 4
  %6 = alloca i32, align 4
  %7 = alloca i8, align 1
  %8 = alloca i8, align 1
  %9 = alloca ptr, align 8
  %10 = alloca i16, align 2
  %11 = alloca i32, align 4
  %12 = alloca %struct.kbentry, align 2
  %13 = alloca %struct.kbentry, align 2
  store ptr %0, ptr %4, align 8
  store i32 %1, ptr %5, align 4
  store i32 %2, ptr %6, align 4
  call void @llvm.lifetime.start.p0(i64 1, ptr %7) #7
  call void @llvm.lifetime.start.p0(i64 1, ptr %8) #7
  call void @llvm.lifetime.start.p0(i64 8, ptr %9) #7
  call void @llvm.lifetime.start.p0(i64 2, ptr %10) #7
  %14 = load ptr, ptr %4, align 8
  %15 = icmp ne ptr %14, null
  br i1 %15, label %17, label %16

16:                                               ; preds = %3
  store i32 1, ptr %11, align 4
  br label %206

17:                                               ; preds = %3
  %18 = load i32, ptr %6, align 4
  %19 = icmp eq i32 %18, 2
  %20 = load ptr, ptr %4, align 8
  %21 = getelementptr inbounds nuw %struct.SDL_EVDEV_keyboard_state, ptr %20, i32 0, i32 9
  %22 = zext i1 %19 to i8
  store i8 %22, ptr %21, align 4
  %23 = load ptr, ptr %4, align 8
  %24 = getelementptr inbounds nuw %struct.SDL_EVDEV_keyboard_state, ptr %23, i32 0, i32 13
  %25 = load i8, ptr %24, align 8
  %26 = sext i8 %25 to i32
  %27 = load ptr, ptr %4, align 8
  %28 = getelementptr inbounds nuw %struct.SDL_EVDEV_keyboard_state, ptr %27, i32 0, i32 11
  %29 = load i8, ptr %28, align 2
  %30 = zext i8 %29 to i32
  %31 = or i32 %26, %30
  %32 = load ptr, ptr %4, align 8
  %33 = getelementptr inbounds nuw %struct.SDL_EVDEV_keyboard_state, ptr %32, i32 0, i32 10
  %34 = load i8, ptr %33, align 1
  %35 = zext i8 %34 to i32
  %36 = xor i32 %31, %35
  %37 = trunc i32 %36 to i8
  store i8 %37, ptr %7, align 1
  %38 = load ptr, ptr %4, align 8
  %39 = getelementptr inbounds nuw %struct.SDL_EVDEV_keyboard_state, ptr %38, i32 0, i32 3
  %40 = load ptr, ptr %39, align 8
  %41 = load i8, ptr %7, align 1
  %42 = zext i8 %41 to i64
  %43 = getelementptr inbounds nuw ptr, ptr %40, i64 %42
  %44 = load ptr, ptr %43, align 8
  store ptr %44, ptr %9, align 8
  %45 = load ptr, ptr %9, align 8
  %46 = icmp ne ptr %45, null
  br i1 %46, label %54, label %47

47:                                               ; preds = %17
  %48 = load ptr, ptr %4, align 8
  %49 = getelementptr inbounds nuw %struct.SDL_EVDEV_keyboard_state, ptr %48, i32 0, i32 13
  store i8 0, ptr %49, align 8
  %50 = load ptr, ptr %4, align 8
  %51 = getelementptr inbounds nuw %struct.SDL_EVDEV_keyboard_state, ptr %50, i32 0, i32 11
  store i8 0, ptr %51, align 2
  %52 = load ptr, ptr %4, align 8
  %53 = getelementptr inbounds nuw %struct.SDL_EVDEV_keyboard_state, ptr %52, i32 0, i32 10
  store i8 0, ptr %53, align 1
  store i32 1, ptr %11, align 4
  br label %206

54:                                               ; preds = %17
  %55 = load i32, ptr %5, align 4
  %56 = icmp ult i32 %55, 256
  br i1 %56, label %57, label %91

57:                                               ; preds = %54
  %58 = load ptr, ptr %4, align 8
  %59 = getelementptr inbounds nuw %struct.SDL_EVDEV_keyboard_state, ptr %58, i32 0, i32 0
  %60 = load i32, ptr %59, align 8
  %61 = icmp slt i32 %60, 0
  br i1 %61, label %62, label %68

62:                                               ; preds = %57
  %63 = load ptr, ptr %9, align 8
  %64 = load i32, ptr %5, align 4
  %65 = zext i32 %64 to i64
  %66 = getelementptr inbounds nuw i16, ptr %63, i64 %65
  %67 = load i16, ptr %66, align 2
  store i16 %67, ptr %10, align 2
  br label %90

68:                                               ; preds = %57
  call void @llvm.lifetime.start.p0(i64 4, ptr %12) #7
  %69 = load i8, ptr %7, align 1
  %70 = getelementptr inbounds nuw %struct.kbentry, ptr %12, i32 0, i32 0
  store i8 %69, ptr %70, align 2
  %71 = load i32, ptr %5, align 4
  %72 = trunc i32 %71 to i8
  %73 = getelementptr inbounds nuw %struct.kbentry, ptr %12, i32 0, i32 1
  store i8 %72, ptr %73, align 1
  %74 = load ptr, ptr %4, align 8
  %75 = getelementptr inbounds nuw %struct.SDL_EVDEV_keyboard_state, ptr %74, i32 0, i32 0
  %76 = load i32, ptr %75, align 8
  %77 = call i32 (i32, i64, ...) @ioctl(i32 noundef %76, i64 noundef 19270, ptr noundef %12) #7
  %78 = icmp eq i32 %77, 0
  br i1 %78, label %79, label %85

79:                                               ; preds = %68
  %80 = getelementptr inbounds nuw %struct.kbentry, ptr %12, i32 0, i32 2
  %81 = load i16, ptr %80, align 2
  %82 = zext i16 %81 to i32
  %83 = xor i32 %82, 61440
  %84 = trunc i32 %83 to i16
  store i16 %84, ptr %10, align 2
  br label %86

85:                                               ; preds = %68
  store i32 1, ptr %11, align 4
  br label %87

86:                                               ; preds = %79
  store i32 0, ptr %11, align 4
  br label %87

87:                                               ; preds = %86, %85
  call void @llvm.lifetime.end.p0(i64 4, ptr %12) #7
  %88 = load i32, ptr %11, align 4
  switch i32 %88, label %206 [
    i32 0, label %89
  ]

89:                                               ; preds = %87
  br label %90

90:                                               ; preds = %89, %62
  br label %92

91:                                               ; preds = %54
  store i32 1, ptr %11, align 4
  br label %206

92:                                               ; preds = %90
  %93 = load i16, ptr %10, align 2
  %94 = zext i16 %93 to i32
  %95 = ashr i32 %94, 8
  %96 = trunc i32 %95 to i8
  store i8 %96, ptr %8, align 1
  %97 = load i8, ptr %8, align 1
  %98 = zext i8 %97 to i32
  %99 = icmp slt i32 %98, 240
  br i1 %99, label %100, label %108

100:                                              ; preds = %92
  %101 = load i32, ptr %6, align 4
  %102 = icmp ne i32 %101, 0
  br i1 %102, label %103, label %107

103:                                              ; preds = %100
  %104 = load ptr, ptr %4, align 8
  %105 = load i16, ptr %10, align 2
  %106 = zext i16 %105 to i32
  call void @put_utf8(ptr noundef %104, i32 noundef %106)
  br label %107

107:                                              ; preds = %103, %100
  br label %187

108:                                              ; preds = %92
  %109 = load i8, ptr %8, align 1
  %110 = zext i8 %109 to i32
  %111 = sub nsw i32 %110, 240
  %112 = trunc i32 %111 to i8
  store i8 %112, ptr %8, align 1
  %113 = load i8, ptr %8, align 1
  %114 = zext i8 %113 to i32
  %115 = icmp eq i32 %114, 11
  br i1 %115, label %116, label %165

116:                                              ; preds = %108
  store i8 0, ptr %8, align 1
  %117 = load ptr, ptr %4, align 8
  %118 = call zeroext i1 @vc_kbd_led(ptr noundef %117, i32 noundef 4)
  br i1 %118, label %119, label %164

119:                                              ; preds = %116
  %120 = load i8, ptr %7, align 1
  %121 = zext i8 %120 to i32
  %122 = xor i32 %121, 1
  %123 = trunc i32 %122 to i8
  store i8 %123, ptr %7, align 1
  %124 = load ptr, ptr %4, align 8
  %125 = getelementptr inbounds nuw %struct.SDL_EVDEV_keyboard_state, ptr %124, i32 0, i32 3
  %126 = load ptr, ptr %125, align 8
  %127 = load i8, ptr %7, align 1
  %128 = zext i8 %127 to i64
  %129 = getelementptr inbounds nuw ptr, ptr %126, i64 %128
  %130 = load ptr, ptr %129, align 8
  store ptr %130, ptr %9, align 8
  %131 = load ptr, ptr %9, align 8
  %132 = icmp ne ptr %131, null
  br i1 %132, label %133, label %163

133:                                              ; preds = %119
  %134 = load ptr, ptr %4, align 8
  %135 = getelementptr inbounds nuw %struct.SDL_EVDEV_keyboard_state, ptr %134, i32 0, i32 0
  %136 = load i32, ptr %135, align 8
  %137 = icmp slt i32 %136, 0
  br i1 %137, label %138, label %144

138:                                              ; preds = %133
  %139 = load ptr, ptr %9, align 8
  %140 = load i32, ptr %5, align 4
  %141 = zext i32 %140 to i64
  %142 = getelementptr inbounds nuw i16, ptr %139, i64 %141
  %143 = load i16, ptr %142, align 2
  store i16 %143, ptr %10, align 2
  br label %162

144:                                              ; preds = %133
  call void @llvm.lifetime.start.p0(i64 4, ptr %13) #7
  %145 = load i8, ptr %7, align 1
  %146 = getelementptr inbounds nuw %struct.kbentry, ptr %13, i32 0, i32 0
  store i8 %145, ptr %146, align 2
  %147 = load i32, ptr %5, align 4
  %148 = trunc i32 %147 to i8
  %149 = getelementptr inbounds nuw %struct.kbentry, ptr %13, i32 0, i32 1
  store i8 %148, ptr %149, align 1
  %150 = load ptr, ptr %4, align 8
  %151 = getelementptr inbounds nuw %struct.SDL_EVDEV_keyboard_state, ptr %150, i32 0, i32 0
  %152 = load i32, ptr %151, align 8
  %153 = call i32 (i32, i64, ...) @ioctl(i32 noundef %152, i64 noundef 19270, ptr noundef %13) #7
  %154 = icmp eq i32 %153, 0
  br i1 %154, label %155, label %161

155:                                              ; preds = %144
  %156 = getelementptr inbounds nuw %struct.kbentry, ptr %13, i32 0, i32 2
  %157 = load i16, ptr %156, align 2
  %158 = zext i16 %157 to i32
  %159 = xor i32 %158, 61440
  %160 = trunc i32 %159 to i16
  store i16 %160, ptr %10, align 2
  br label %161

161:                                              ; preds = %155, %144
  call void @llvm.lifetime.end.p0(i64 4, ptr %13) #7
  br label %162

162:                                              ; preds = %161, %138
  br label %163

163:                                              ; preds = %162, %119
  br label %164

164:                                              ; preds = %163, %116
  br label %165

165:                                              ; preds = %164, %108
  %166 = load i8, ptr %8, align 1
  %167 = zext i8 %166 to i64
  %168 = getelementptr inbounds nuw [16 x ptr], ptr @k_handler, i64 0, i64 %167
  %169 = load ptr, ptr %168, align 8
  %170 = load ptr, ptr %4, align 8
  %171 = load i16, ptr %10, align 2
  %172 = zext i16 %171 to i32
  %173 = and i32 %172, 255
  %174 = trunc i32 %173 to i8
  %175 = load i32, ptr %6, align 4
  %176 = icmp ne i32 %175, 0
  %177 = xor i1 %176, true
  %178 = zext i1 %177 to i32
  %179 = trunc i32 %178 to i8
  call void %169(ptr noundef %170, i8 noundef zeroext %174, i8 noundef signext %179)
  %180 = load i8, ptr %8, align 1
  %181 = zext i8 %180 to i32
  %182 = icmp ne i32 %181, 12
  br i1 %182, label %183, label %186

183:                                              ; preds = %165
  %184 = load ptr, ptr %4, align 8
  %185 = getelementptr inbounds nuw %struct.SDL_EVDEV_keyboard_state, ptr %184, i32 0, i32 11
  store i8 0, ptr %185, align 2
  br label %186

186:                                              ; preds = %183, %165
  br label %187

187:                                              ; preds = %186, %107
  %188 = load ptr, ptr %4, align 8
  %189 = getelementptr inbounds nuw %struct.SDL_EVDEV_keyboard_state, ptr %188, i32 0, i32 15
  %190 = load i32, ptr %189, align 4
  %191 = icmp ugt i32 %190, 0
  br i1 %191, label %192, label %205

192:                                              ; preds = %187
  %193 = load ptr, ptr %4, align 8
  %194 = getelementptr inbounds nuw %struct.SDL_EVDEV_keyboard_state, ptr %193, i32 0, i32 14
  %195 = load ptr, ptr %4, align 8
  %196 = getelementptr inbounds nuw %struct.SDL_EVDEV_keyboard_state, ptr %195, i32 0, i32 15
  %197 = load i32, ptr %196, align 4
  %198 = zext i32 %197 to i64
  %199 = getelementptr inbounds nuw [128 x i8], ptr %194, i64 0, i64 %198
  store i8 0, ptr %199, align 1
  %200 = load ptr, ptr %4, align 8
  %201 = getelementptr inbounds nuw %struct.SDL_EVDEV_keyboard_state, ptr %200, i32 0, i32 14
  %202 = getelementptr inbounds [128 x i8], ptr %201, i64 0, i64 0
  call void @SDL_SendKeyboardText(ptr noundef %202)
  %203 = load ptr, ptr %4, align 8
  %204 = getelementptr inbounds nuw %struct.SDL_EVDEV_keyboard_state, ptr %203, i32 0, i32 15
  store i32 0, ptr %204, align 4
  br label %205

205:                                              ; preds = %192, %187
  store i32 0, ptr %11, align 4
  br label %206

206:                                              ; preds = %205, %91, %87, %47, %16
  call void @llvm.lifetime.end.p0(i64 2, ptr %10) #7
  call void @llvm.lifetime.end.p0(i64 8, ptr %9) #7
  call void @llvm.lifetime.end.p0(i64 1, ptr %8) #7
  call void @llvm.lifetime.end.p0(i64 1, ptr %7) #7
  %207 = load i32, ptr %11, align 4
  switch i32 %207, label %209 [
    i32 0, label %208
    i32 1, label %208
  ]

208:                                              ; preds = %206, %206
  ret void

209:                                              ; preds = %206
  unreachable
}