; Function Attrs: nounwind uwtable
define hidden void @SDL_EVDEV_kbd_keycode(ptr noundef %0, i32 noundef %1, i32 noundef %2) local_unnamed_addr #0 {
  %4 = alloca %struct.kbentry, align 2
  %5 = alloca %struct.kbentry, align 2
  %.not = icmp eq ptr %0, null
  br i1 %.not, label %88, label %6

6:                                                ; preds = %3
  %7 = icmp eq i32 %2, 2
  %8 = getelementptr inbounds nuw i8, ptr %0, i64 52
  %9 = zext i1 %7 to i8
  store i8 %9, ptr %8, align 4
  %10 = getelementptr inbounds nuw i8, ptr %0, i64 56
  %11 = load i8, ptr %10, align 8
  %12 = getelementptr inbounds nuw i8, ptr %0, i64 54
  %13 = load i8, ptr %12, align 2
  %14 = or i8 %13, %11
  %15 = getelementptr inbounds nuw i8, ptr %0, i64 53
  %16 = load i8, ptr %15, align 1
  %17 = xor i8 %14, %16
  %18 = getelementptr inbounds nuw i8, ptr %0, i64 16
  %19 = load ptr, ptr %18, align 8
  %20 = zext i8 %17 to i64
  %21 = getelementptr inbounds nuw ptr, ptr %19, i64 %20
  %22 = load ptr, ptr %21, align 8
  %.not56 = icmp eq ptr %22, null
  br i1 %.not56, label %23, label %24

23:                                               ; preds = %6
  store i8 0, ptr %10, align 8
  store i8 0, ptr %12, align 2
  store i8 0, ptr %15, align 1
  br label %88

24:                                               ; preds = %6
  %25 = icmp ult i32 %1, 256
  br i1 %25, label %26, label %88

26:                                               ; preds = %24
  %27 = load i32, ptr %0, align 8
  %28 = icmp slt i32 %27, 0
  br i1 %28, label %29, label %33

29:                                               ; preds = %26
  %30 = zext nneg i32 %1 to i64
  %31 = getelementptr inbounds nuw i16, ptr %22, i64 %30
  %32 = load i16, ptr %31, align 2
  br label %41

33:                                               ; preds = %26
  call void @llvm.lifetime.start.p0(i64 4, ptr nonnull %4) #12
  store i8 %17, ptr %4, align 2
  %34 = trunc nuw i32 %1 to i8
  %35 = getelementptr inbounds nuw i8, ptr %4, i64 1
  store i8 %34, ptr %35, align 1
  %36 = call i32 (i32, i64, ...) @ioctl(i32 noundef %27, i64 noundef 19270, ptr noundef nonnull %4) #12
  %37 = icmp eq i32 %36, 0
  %38 = getelementptr inbounds nuw i8, ptr %4, i64 2
  %39 = load i16, ptr %38, align 2
  %40 = xor i16 %39, -4096
  call void @llvm.lifetime.end.p0(i64 4, ptr nonnull %4) #12
  br i1 %37, label %41, label %88

41:                                               ; preds = %29, %33
  %.1 = phi i16 [ %32, %29 ], [ %40, %33 ]
  %42 = zext i16 %.1 to i32
  %43 = icmp ult i16 %.1, -4096
  br i1 %43, label %44, label %46

44:                                               ; preds = %41
  %.not60 = icmp eq i32 %2, 0
  br i1 %.not60, label %81, label %45

45:                                               ; preds = %44
  call fastcc void @put_utf8(ptr noundef nonnull %0, i32 noundef %42)
  br label %81

46:                                               ; preds = %41
  %47 = lshr i16 %.1, 8
  %48 = trunc nuw i16 %47 to i8
  %49 = add nsw i8 %48, 16
  %50 = icmp eq i8 %49, 11
  br i1 %50, label %51, label %74

51:                                               ; preds = %46
  %52 = getelementptr i8, ptr %0, i64 55
  %.val = load i8, ptr %52, align 1
  %53 = and i8 %.val, 4
  %.not62 = icmp eq i8 %53, 0
  br i1 %.not62, label %74, label %54

54:                                               ; preds = %51
  %55 = xor i8 %17, 1
  %56 = load ptr, ptr %18, align 8
  %57 = zext i8 %55 to i64
  %58 = getelementptr inbounds nuw ptr, ptr %56, i64 %57
  %59 = load ptr, ptr %58, align 8
  %.not57 = icmp eq ptr %59, null
  br i1 %.not57, label %74, label %60

60:                                               ; preds = %54
  %61 = load i32, ptr %0, align 8
  %62 = icmp slt i32 %61, 0
  br i1 %62, label %63, label %67

63:                                               ; preds = %60
  %64 = zext nneg i32 %1 to i64
  %65 = getelementptr inbounds nuw i16, ptr %59, i64 %64
  %66 = load i16, ptr %65, align 2
  br label %74

67:                                               ; preds = %60
  call void @llvm.lifetime.start.p0(i64 4, ptr nonnull %5) #12
  store i8 %55, ptr %5, align 2
  %68 = trunc nuw i32 %1 to i8
  %69 = getelementptr inbounds nuw i8, ptr %5, i64 1
  store i8 %68, ptr %69, align 1
  %70 = call i32 (i32, i64, ...) @ioctl(i32 noundef %61, i64 noundef 19270, ptr noundef nonnull %5) #12
  %71 = icmp eq i32 %70, 0
  %72 = getelementptr inbounds nuw i8, ptr %5, i64 2
  %73 = load i16, ptr %72, align 2
  %.3 = select i1 %71, i16 %73, i16 %.1
  call void @llvm.lifetime.end.p0(i64 4, ptr nonnull %5) #12
  br label %74

74:                                               ; preds = %51, %63, %67, %54, %46
  %.049 = phi i8 [ 0, %63 ], [ 0, %67 ], [ 0, %54 ], [ 0, %51 ], [ %49, %46 ]
  %.2 = phi i16 [ %66, %63 ], [ %.3, %67 ], [ %.1, %54 ], [ %.1, %51 ], [ %.1, %46 ]
  %75 = zext nneg i8 %.049 to i64
  %76 = getelementptr inbounds nuw [16 x ptr], ptr @k_handler, i64 0, i64 %75
  %77 = load ptr, ptr %76, align 8
  %78 = trunc i16 %.2 to i8
  %.not58 = icmp eq i32 %2, 0
  %79 = zext i1 %.not58 to i8
  call void %77(ptr noundef nonnull %0, i8 noundef zeroext %78, i8 noundef signext %79) #12
  %.not59 = icmp eq i8 %.049, 12
  br i1 %.not59, label %81, label %80

80:                                               ; preds = %74
  store i8 0, ptr %12, align 2
  br label %81

81:                                               ; preds = %74, %80, %44, %45
  %82 = getelementptr inbounds nuw i8, ptr %0, i64 188
  %83 = load i32, ptr %82, align 4
  %.not61 = icmp eq i32 %83, 0
  br i1 %.not61, label %88, label %84

84:                                               ; preds = %81
  %85 = getelementptr inbounds nuw i8, ptr %0, i64 57
  %86 = zext i32 %83 to i64
  %87 = getelementptr inbounds nuw [128 x i8], ptr %85, i64 0, i64 %86
  store i8 0, ptr %87, align 1
  call void @SDL_SendKeyboardText(ptr noundef nonnull %85) #12
  store i32 0, ptr %82, align 4
  br label %88

88:                                               ; preds = %81, %84, %24, %3, %33, %23
  ret void
}